target datalayout = "e-m:e-p270:32:32-p271:32:32-p272:64:64-i64:64-i128:128-f80:128-n8:16:32:64-S128"
target triple = "x86_64-pc-linux-gnu"

%struct.cli_pcre_data = type { ptr, ptr, i32, ptr, i32 }
%struct.cli_pcre_results = type { i32, [2 x i32], ptr }

@.str.6 = private unnamed_addr constant [42 x i8] c"cli_pcre_match: pcre_exec: out of memory\0A\00", align 1
@.str.7 = private unnamed_addr constant [49 x i8] c"cli_pcre_match: pcre_exec: match limit exceeded\0A\00", align 1
@.str.8 = private unnamed_addr constant [53 x i8] c"cli_pcre_match: pcre_exec: recursive limit exceeded\0A\00", align 1
@.str.9 = private unnamed_addr constant [46 x i8] c"cli_pcre_match: pcre_exec: returned error %d\0A\00", align 1

; Function Attrs: nounwind uwtable
define i32 @cli_pcre_match(ptr noundef %0, ptr noundef %1, i64 noundef %2, i64 noundef %3, i32 noundef %4, ptr noundef %5) #0 {
  %7 = alloca ptr, align 8
  %8 = alloca ptr, align 8
  %9 = alloca i64, align 8
  %10 = alloca i64, align 8
  %11 = alloca i32, align 4
  %12 = alloca ptr, align 8
  %13 = alloca i32, align 4
  %14 = alloca ptr, align 8
  %15 = alloca i64, align 8
  store ptr %0, ptr %7, align 8
  store ptr %1, ptr %8, align 8
  store i64 %2, ptr %9, align 8
  store i64 %3, ptr %10, align 8
  store i32 %4, ptr %11, align 4
  store ptr %5, ptr %12, align 8
  %16 = load ptr, ptr %7, align 8
  %17 = getelementptr inbounds %struct.cli_pcre_data, ptr %16, i32 0, i32 4
  %18 = load i32, ptr %17, align 8
  %19 = zext i32 %18 to i64
  store i64 %19, ptr %15, align 8
  %20 = load i64, ptr %10, align 8
  %21 = load ptr, ptr %7, align 8
  %22 = getelementptr inbounds %struct.cli_pcre_data, ptr %21, i32 0, i32 4
  %23 = load i32, ptr %22, align 8
  %24 = zext i32 %23 to i64
  %25 = icmp ne i64 %20, %24
  br i1 %25, label %26, label %28

26:                                               ; preds = %6
  %27 = load i64, ptr %10, align 8
  store i64 %27, ptr %15, align 8
  br label %28

28:                                               ; preds = %26, %6
  %29 = load ptr, ptr %7, align 8
  %30 = getelementptr inbounds %struct.cli_pcre_data, ptr %29, i32 0, i32 0
  %31 = load ptr, ptr %30, align 8
  %32 = load ptr, ptr %8, align 8
  %33 = load i64, ptr %9, align 8
  %34 = load i64, ptr %15, align 8
  %35 = load i32, ptr %11, align 4
  %36 = load ptr, ptr %12, align 8
  %37 = getelementptr inbounds %struct.cli_pcre_results, ptr %36, i32 0, i32 2
  %38 = load ptr, ptr %37, align 8
  %39 = load ptr, ptr %7, align 8
  %40 = getelementptr inbounds %struct.cli_pcre_data, ptr %39, i32 0, i32 1
  %41 = load ptr, ptr %40, align 8
  %42 = call i32 @pcre2_match_8(ptr noundef %31, ptr noundef %32, i64 noundef %33, i64 noundef %34, i32 noundef %35, ptr noundef %38, ptr noundef %41)
  store i32 %42, ptr %13, align 4
  %43 = load i32, ptr %13, align 4
  %44 = icmp slt i32 %43, 0
  br i1 %44, label %45, label %61

45:                                               ; preds = %28
  %46 = load i32, ptr %13, align 4
  %47 = icmp ne i32 %46, -1
  br i1 %47, label %48, label %61

48:                                               ; preds = %45
  %49 = load i32, ptr %13, align 4
  switch i32 %49, label %56 [
    i32 -37, label %50
    i32 -48, label %51
    i32 -47, label %54
    i32 -53, label %55
  ]

50:                                               ; preds = %48
  br label %60

51:                                               ; preds = %48
  call void (ptr, ...) @cli_errmsg(ptr noundef @.str.6)
  %52 = load ptr, ptr %12, align 8
  %53 = getelementptr inbounds %struct.cli_pcre_results, ptr %52, i32 0, i32 0
  store i32 20, ptr %53, align 8
  br label %60

54:                                               ; preds = %48
  call void (ptr, ...) @cli_dbgmsg(ptr noundef @.str.7)
  br label %60

55:                                               ; preds = %48
  call void (ptr, ...) @cli_dbgmsg(ptr noundef @.str.8)
  br label %60

56:                                               ; preds = %48
  %57 = load i32, ptr %13, align 4
  call void (ptr, ...) @cli_errmsg(ptr noundef @.str.9, i32 noundef %57)
  %58 = load ptr, ptr %12, align 8
  %59 = getelementptr inbounds %struct.cli_pcre_results, ptr %58, i32 0, i32 0
  store i32 22, ptr %59, align 8
  br label %60

60:                                               ; preds = %56, %55, %54, %51, %50
  br label %91

61:                                               ; preds = %45, %28
  %62 = load i32, ptr %13, align 4
  %63 = icmp sgt i32 %62, 0
  br i1 %63, label %64, label %83

64:                                               ; preds = %61
  %65 = load ptr, ptr %12, align 8
  %66 = getelementptr inbounds %struct.cli_pcre_results, ptr %65, i32 0, i32 2
  %67 = load ptr, ptr %66, align 8
  %68 = call ptr @pcre2_get_ovector_pointer_8(ptr noundef %67)
  store ptr %68, ptr %14, align 8
  %69 = load ptr, ptr %14, align 8
  %70 = getelementptr inbounds i64, ptr %69, i64 0
  %71 = load i64, ptr %70, align 8
  %72 = trunc i64 %71 to i32
  %73 = load ptr, ptr %12, align 8
  %74 = getelementptr inbounds %struct.cli_pcre_results, ptr %73, i32 0, i32 1
  %75 = getelementptr inbounds [2 x i32], ptr %74, i64 0, i64 0
  store i32 %72, ptr %75, align 4
  %76 = load ptr, ptr %14, align 8
  %77 = getelementptr inbounds i64, ptr %76, i64 1
  %78 = load i64, ptr %77, align 8
  %79 = trunc i64 %78 to i32
  %80 = load ptr, ptr %12, align 8
  %81 = getelementptr inbounds %struct.cli_pcre_results, ptr %80, i32 0, i32 1
  %82 = getelementptr inbounds [2 x i32], ptr %81, i64 0, i64 1
  store i32 %79, ptr %82, align 4
  br label %90

83:                                               ; preds = %61
  %84 = load ptr, ptr %12, align 8
  %85 = getelementptr inbounds %struct.cli_pcre_results, ptr %84, i32 0, i32 1
  %86 = getelementptr inbounds [2 x i32], ptr %85, i64 0, i64 1
  store i32 0, ptr %86, align 4
  %87 = load ptr, ptr %12, align 8
  %88 = getelementptr inbounds %struct.cli_pcre_results, ptr %87, i32 0, i32 1
  %89 = getelementptr inbounds [2 x i32], ptr %88, i64 0, i64 0
  store i32 0, ptr %89, align 4
  br label %90

90:                                               ; preds = %83, %64
  br label %91

91:                                               ; preds = %90, %60
  %92 = load i32, ptr %13, align 4
  ret i32 %92
}