; Function Attrs: nounwind uwtable
define i32 @cli_pcre_match(ptr nocapture noundef readonly %0, ptr noundef %1, i64 noundef %2, i64 noundef %3, i32 noundef %4, ptr nocapture noundef %5) local_unnamed_addr #0 {
  %7 = load ptr, ptr %0, align 8
  %8 = getelementptr inbounds i8, ptr %5, i64 16
  %9 = load ptr, ptr %8, align 8
  %10 = getelementptr inbounds i8, ptr %0, i64 8
  %11 = load ptr, ptr %10, align 8
  %12 = tail call i32 @pcre2_match_8(ptr noundef %7, ptr noundef %1, i64 noundef %2, i64 noundef %3, i32 noundef %4, ptr noundef %9, ptr noundef %11) #6
  %or.cond = icmp slt i32 %12, -1
  br i1 %or.cond, label %13, label %18

13:                                               ; preds = %6
  switch i32 %12, label %17 [
    i32 -37, label %33
    i32 -48, label %14
    i32 -47, label %15
    i32 -53, label %16
  ]

14:                                               ; preds = %13
  tail call void (ptr, ...) @cli_errmsg(ptr noundef nonnull @.str.6) #6
  store i32 20, ptr %5, align 8
  br label %33

15:                                               ; preds = %13
  tail call void (ptr, ...) @cli_dbgmsg(ptr noundef nonnull @.str.7) #6
  br label %33

16:                                               ; preds = %13
  tail call void (ptr, ...) @cli_dbgmsg(ptr noundef nonnull @.str.8) #6
  br label %33

17:                                               ; preds = %13
  tail call void (ptr, ...) @cli_errmsg(ptr noundef nonnull @.str.9, i32 noundef %12) #6
  store i32 22, ptr %5, align 8
  br label %33

18:                                               ; preds = %6
  %19 = icmp sgt i32 %12, 0
  br i1 %19, label %20, label %30

20:                                               ; preds = %18
  %21 = load ptr, ptr %8, align 8
  %22 = tail call ptr @pcre2_get_ovector_pointer_8(ptr noundef %21) #6
  %23 = load i64, ptr %22, align 8
  %24 = trunc i64 %23 to i32
  %25 = getelementptr inbounds i8, ptr %5, i64 4
  store i32 %24, ptr %25, align 4
  %26 = getelementptr inbounds i8, ptr %22, i64 8
  %27 = load i64, ptr %26, align 8
  %28 = trunc i64 %27 to i32
  %29 = getelementptr inbounds i8, ptr %5, i64 8
  store i32 %28, ptr %29, align 4
  br label %33

30:                                               ; preds = %18
  %31 = getelementptr inbounds i8, ptr %5, i64 4
  %32 = getelementptr inbounds i8, ptr %5, i64 8
  store i32 0, ptr %32, align 4
  store i32 0, ptr %31, align 4
  br label %33

33:                                               ; preds = %20, %30, %14, %15, %16, %17, %13
  ret i32 %12
}